39277179 24392409 housenumber properties Cadastre des source addr cadastre rale Direction Imp dgi jour ts fr Mise
38575902 19448056 housenumber properties Cadastre des source addr cadastre rale Direction Imp mise dgi jour ts fr
45714194 27177271 housenumber properties Cadastre des source addr cadastre rale Direction Imp dgi jour ts fr Mise
31801084 42072120 properties Cadastre des source rale cadastre Imp Direction mise dgi jour ts fr
45597891 27564680 housenumber properties Cadastre des source addr cadastre rale Direction Imp dgi jour ts fr Mise
38946547 24629410 housenumber properties Cadastre des source addr cadastre rale Direction Imp dgi jour ts fr Mise
49615479 24439502 housenumber properties Cadastre des source addr cadastre rale Direction Imp dgi jour ts fr Mise
47221776 25711162 housenumber properties Cadastre des source addr cadastre rale Direction Imp dgi jour ts fr Mise
52604472 28085970 properties Cadastre des source rale cadastre Imp Direction dgi jour ts fr Mise
32414848 41395382 name not Immobilier brand properties office Vesta source wheelchair wikidata survey limited Century agent estate
61384545 24157554 properties Cadastre des source rale cadastre Imp Direction mise dgi jour ts fr
43298912 27031810 housenumber properties Cadastre des source addr cadastre rale Direction Imp dgi jour ts fr Mise
36109686 33413798 name brand wikipedia properties phone Orange source wikidata survey shop mobile fr entreprise
54322621 33212284 properties Cadastre des source rale cadastre Imp Direction dgi jour ts fr Mise
40726420 31610597 Paribas name brand wikipedia properties atm BNP bank amenity wikidata operator yes en
25396977 1426897 fr housenumber properties Cadastre des source addr cadastre rale Direction entrance Imp mise dgi jour ts yes
7843780 4705089 properties Cadastre des source rale cadastre Imp Direction dgi jour ts fr Mise
73720941 19929939 Librairie jour name Bertrand books Cadastre shop Papeterie source cadastre Imp Mise properties des rale Direction dgi ts fr
47933580 26386980 housenumber properties Cadastre des source addr cadastre rale Direction Imp dgi jour ts fr Mise
22921156 7841359 properties Cadastre des source rale cadastre Imp Direction mise dgi jour ts fr
42741595 25793255 housenumber properties Cadastre des source addr cadastre rale Direction Imp dgi jour ts fr Mise
50359494 469040 properties Cadastre des source rale cadastre Imp Direction mise dgi jour ts fr
23180486 26246598 FR yes transport name platform bin tactile shelter public bus source wheelchair highway re StopPoint La route paving STIF stop properties zone ref bench Jonch no id
40664564 25973821 housenumber properties Cadastre des source addr cadastre rale Direction Imp dgi jour ts fr Mise
10659287 13091858 name public bus Monnet properties stop Jean position yes transport
38661349 20975454 properties Cadastre des source rale cadastre Imp Direction mise dgi jour ts fr
48139686 41672580 name SIREN properties ref village addr source postcode INSEE Groslay population place
46755512 24683818 housenumber properties Cadastre des source addr cadastre rale Direction Imp dgi jour ts fr Mise
42418884 24376501 housenumber properties Cadastre des source addr cadastre rale Direction Imp dgi jour ts fr Mise
30571936 35232591 properties Cadastre des source rale cadastre Imp Direction mise dgi jour ts fr
45992300 22742261 housenumber properties Cadastre des source addr cadastre rale Direction Imp dgi jour ts fr Mise
32002887 42403318 properties Cadastre des source rale cadastre Imp Direction mise dgi jour ts fr
49831993 24597331 housenumber properties Cadastre des source addr cadastre rale Direction Imp dgi jour ts fr Mise
31944216 32263927 properties Cadastre des source rale cadastre Imp Direction dgi jour ts fr Mise
34550406 21774680 name The Sa properties Mo phone Factory opening source survey Smart shop mobile
47857107 25781307 housenumber properties Cadastre des source addr cadastre rale Direction Imp dgi jour ts fr Mise
44106796 18469896 properties Cadastre des source rale cadastre Imp Direction mise dgi jour ts fr
41209026 25781412 housenumber properties Cadastre des source addr cadastre rale Direction Imp dgi jour ts fr Mise
47478171 25994939 housenumber properties Cadastre des source addr cadastre rale Direction Imp dgi jour ts fr Mise
76955540 28887893 properties Cadastre des source rale cadastre Imp Direction dgi jour ts fr Mise
45982563 22885932 housenumber properties Cadastre des source addr cadastre rale Direction Imp dgi jour ts fr Mise
9720113 46025576 properties Cadastre des source rale cadastre Imp Direction dgi jour ts fr Mise
49517084 26583835 housenumber properties Cadastre des source addr cadastre rale Direction Imp dgi jour ts fr Mise
50678244 24267304 housenumber properties Cadastre des source addr cadastre rale Direction Imp dgi jour ts fr Mise
50388981 22766774 properties Cadastre des source rale cadastre Imp Direction mise dgi jour ts fr
46806512 22634826 street Rue postcode jour housenumber Cadastre addr Paris city source cadastre Imp Mise properties des rale Direction dgi ts fr Chartreux
53983173 26760994 name Rigoles lesrigoles Les properties restaurant https french source amenity survey www website cuisine com
38696402 24643252 housenumber properties Cadastre des source addr cadastre rale Direction Imp dgi jour ts fr Mise
77243541 27835720 properties Cadastre des source rale cadastre Imp Direction dgi jour ts fr Mise
49816295 25658952 housenumber properties Cadastre des source addr cadastre rale Direction Imp dgi jour ts fr Mise
69679037 18785752 name brand wikipedia fr properties atm rale bank amenity wikidata operator Soci yes
66037555 17165064 housenumber properties Cadastre des source addr cadastre rale Direction Imp dgi jour ts fr Mise
46077510 24502475 housenumber properties Cadastre des source addr cadastre rale Direction Imp dgi jour ts fr Mise
4563273 29642882 properties Cadastre des source rale cadastre Imp Direction mise dgi jour ts fr
47742672 24569173 housenumber properties Cadastre des source addr cadastre rale Direction Imp dgi jour ts fr Mise
22732419 7327595 properties Cadastre des source rale cadastre Imp Direction mise dgi jour ts fr
41028104 23772040 housenumber properties Cadastre des source addr cadastre rale Direction Imp mise dgi jour ts fr
40586156 26429703 housenumber properties Cadastre des source addr cadastre rale Direction Imp dgi jour ts fr Mise
50521705 23427920 housenumber properties Cadastre des source addr cadastre rale Direction Imp dgi jour ts fr Mise
41670435 26361993 housenumber properties Cadastre des source addr cadastre rale Direction Imp dgi jour ts fr Mise
52006682 1252450 properties Cadastre des source rale cadastre Imp Direction mise dgi jour ts fr
39231443 22373050 FR Parc yes transport name platform bin tactile shelter Citro public bus lit source wheelchair highway StopPoint route paving STIF stop properties zone ref no bench Andr id
39525377 25892150 housenumber properties Cadastre des source addr cadastre rale Direction Imp dgi jour ts fr Mise
39461759 30373357 properties Cadastre des source rale cadastre Imp Direction dgi jour ts fr Mise
81996393 31335754 housenumber properties Cadastre des source addr cadastre rale Direction Imp dgi jour ts fr Mise
47857712 24079685 properties Cadastre des source rale cadastre Imp Direction dgi jour ts fr Mise
37620478 22331786 housenumber properties Cadastre des source addr cadastre rale Direction Imp dgi jour ts fr Mise
34738801 21576350 Chicken wikipedia alt yes cuisine name Fr Sa fast Fried opening amenity takeaway Su en wikidata brand KFC properties food Kentucky Th chicken
61761453 13554201 properties Cadastre des source rale cadastre Imp Direction mise dgi jour ts fr
41839567 10215272 Antony FR de housenumber properties street Rue country addr postcode la Prairie city
39777167 22243589 zebra signals paving vibration sound properties operated ref button no tactile traffic highway yes crossing
45257311 26410598 maison restaurant website Truffe name de Sa opening amenity shop deli Maison www truffe com http properties Mo phone la
39668786 24764344 housenumber properties Cadastre des source addr cadastre rale Direction Imp dgi jour ts fr Mise
52135169 36256936 properties Cadastre des source rale cadastre Imp Direction mise dgi jour ts fr
43875374 18475409 properties Cadastre des source rale cadastre Imp Direction mise dgi jour ts fr
49259847 24332725 housenumber properties Cadastre des source addr cadastre rale Direction Imp dgi jour ts fr Mise
63698155 25248490 properties Cadastre des source rale cadastre Imp Direction mise dgi jour ts fr
44127914 27809627 type wikipedia lamp LaPoste postcode fran post Sa box addr operator amenity gouv collection aise source wikidata times entreprise La data properties Mo Poste ref fr
74563482 3334362 properties Cadastre des source rale cadastre Imp Direction dgi jour ts fr Mise
52794104 28323076 properties Cadastre des source rale cadastre Imp Direction dgi jour ts fr Mise
39434364 23687329 type wikipedia artwork fut nieur France New date utilis Bartholdi name de au par arts Eiffel originale bronze material Paris qui artist York pliqu IV ing min mus er Auguste Statue wikidata et statue trouve Libert XIV tourism tiers inscription maquette plique properties ru zh des height pliques la start pour JUILLET se fr cr
39118508 20712848 properties Cadastre des source rale cadastre Imp Direction dgi jour ts fr Mise
33398351 41857225 properties Cadastre des source rale cadastre Imp Direction mise dgi jour ts fr
39106982 19532846 housenumber properties Cadastre des source addr cadastre rale Direction Imp mise dgi jour ts fr
67992388 4914932 properties Cadastre des source rale cadastre Imp Direction mise dgi jour ts fr
45846615 27046744 housenumber properties Cadastre des source addr cadastre rale Direction Imp dgi jour ts fr Mise
41776948 39492206 properties Cadastre des source rale cadastre Imp Direction mise dgi jour ts fr
56327665 6445777 properties Cadastre des source rale cadastre Imp Direction mise dgi jour ts fr
49861085 26615151 housenumber properties Cadastre des source addr cadastre rale Direction Imp mise dgi jour ts fr
42434344 16633629 res le WikiProject France Ne dans this url fichepdf node made rep sit not de Rep Croix openstreetmap ign IGN siques en note ele Clocher Permanence ce see action man vu Centre org source survey geodesie index module cartographie Point place fr http glementaire properties Do wiki cf des ref no la cadre php carte pas placer move fiches od
41280618 27112021 housenumber properties Cadastre des source addr cadastre rale Direction Imp dgi jour ts fr Mise
40895354 26256032 housenumber properties Cadastre des source addr cadastre rale Direction Imp dgi jour ts fr Mise
61734545 14751427 properties Cadastre des source rale cadastre Imp Direction mise dgi jour ts fr
45155758 26981126 housenumber properties Cadastre des source addr cadastre rale Direction Imp dgi jour ts fr Mise
42414581 21820101 drinking Charles Fontaine yes commons name wikimedia fountain amenity Paris artist Lebourg XV jpg Vallin rwk wallace Wallace Auguste File fontaine place access properties water no fee
9102336 44862600 properties Cadastre des source rale cadastre Imp Direction dgi jour ts fr Mise
51892708 26454927 name shop clothes properties signed opening no wheelchair Loona yes
40086892 22091799 properties Cadastre des source rale cadastre Imp Direction mise dgi jour ts fr
38249848 24211277 housenumber properties Cadastre des source addr cadastre rale Direction Imp dgi jour ts fr Mise
38124861 28494958 Finances housenumber properties Cadastre des source addr cadastre rale Direction Publiques dgi jour fr Mise